; Function Attrs: mustprogress uwtable
define hidden noundef zeroext i1 @_ZN4cvc58internal4expr19isBooleanConnectiveENS0_12NodeTemplateILb0EEE(ptr noundef %0) local_unnamed_addr #3 personality ptr @__gxx_personality_v0 {
  %2 = alloca %"class.cvc5::internal::TypeNode", align 8
  %3 = alloca %"class.cvc5::internal::TypeNode", align 8
  %4 = alloca %"class.cvc5::internal::NodeTemplate", align 8
  %5 = load ptr, ptr %0, align 8, !tbaa !3
  %6 = getelementptr inbounds nuw i8, ptr %5, i64 8
  %7 = load i64, ptr %6, align 8
  %8 = trunc i64 %7 to i32
  %9 = and i32 %8, 1023
  %.off = add nsw i32 %9, -21
  %switch = icmp ult i32 %.off, 4
  br i1 %switch, label %.critedge47.thread61, label %10

10:                                               ; preds = %1
  switch i32 %9, label %.critedge49 [
    i32 26, label %11
    i32 25, label %.critedge47.thread61
    i32 5, label %21
  ]

11:                                               ; preds = %10
  call void @llvm.lifetime.start.p0(i64 8, ptr nonnull %2) #21
  call void @_ZNK4cvc58internal12NodeTemplateILb0EE7getTypeEb(ptr dead_on_unwind nonnull writable sret(%"class.cvc5::internal::TypeNode") align 8 %2, ptr noundef nonnull align 8 dereferenceable(8) %0, i1 noundef zeroext false)
  %12 = load ptr, ptr %2, align 8, !tbaa !207
  %13 = getelementptr inbounds nuw i8, ptr %12, i64 8
  %14 = load i64, ptr %13, align 8
  %15 = and i64 %14, 1023
  %16 = icmp eq i64 %15, 13
  br i1 %16, label %17, label %.critedge47.thread69

17:                                               ; preds = %11
  %18 = invoke noundef nonnull align 4 dereferenceable(4) ptr @_ZNK4cvc58internal4expr9NodeValue8getConstINS0_12TypeConstantEEERKT_v(ptr noundef nonnull align 8 dereferenceable(24) %12)
          to label %_ZNK4cvc58internal8TypeNode9isBooleanEv.exit unwind label %74

_ZNK4cvc58internal8TypeNode9isBooleanEv.exit:     ; preds = %17
  %19 = load i32, ptr %18, align 4, !tbaa !295
  %20 = icmp eq i32 %19, 2
  br i1 %20, label %.critedge47.thread64, label %.critedge47.thread69

21:                                               ; preds = %10
  call void @llvm.lifetime.start.p0(i64 8, ptr nonnull %3) #21
  call void @llvm.lifetime.start.p0(i64 8, ptr nonnull %4) #21
  tail call void @llvm.experimental.noalias.scope.decl(metadata !297)
  %22 = invoke noundef i32 @_ZN4cvc58internal4kind10metaKindOfENS1_6Kind_tE(i32 noundef 5)
          to label %23 unwind label %67

23:                                               ; preds = %21
  %24 = icmp eq i32 %22, 2
  %25 = getelementptr inbounds nuw i8, ptr %5, i64 24
  %26 = zext i1 %24 to i64
  %27 = getelementptr inbounds nuw [0 x ptr], ptr %25, i64 0, i64 %26
  %28 = load ptr, ptr %27, align 8, !tbaa !20, !noalias !297
  store ptr %28, ptr %4, align 8, !tbaa !3, !alias.scope !297
  invoke void @_ZNK4cvc58internal12NodeTemplateILb0EE7getTypeEb(ptr dead_on_unwind nonnull writable sret(%"class.cvc5::internal::TypeNode") align 8 %3, ptr noundef nonnull align 8 dereferenceable(8) %4, i1 noundef zeroext false)
          to label %29 unwind label %69

29:                                               ; preds = %23
  %30 = load ptr, ptr %3, align 8, !tbaa !207
  %31 = getelementptr inbounds nuw i8, ptr %30, i64 8
  %32 = load i64, ptr %31, align 8
  %33 = and i64 %32, 1023
  %34 = icmp eq i64 %33, 13
  br i1 %34, label %35, label %.critedge

35:                                               ; preds = %29
  %36 = invoke noundef nonnull align 4 dereferenceable(4) ptr @_ZNK4cvc58internal4expr9NodeValue8getConstINS0_12TypeConstantEEERKT_v(ptr noundef nonnull align 8 dereferenceable(24) %30)
          to label %.noexc53 unwind label %71

.noexc53:                                         ; preds = %35
  %37 = load i32, ptr %36, align 4, !tbaa !295
  %38 = icmp eq i32 %37, 2
  %.pre = load ptr, ptr %3, align 8, !tbaa !207
  br label %.critedge

.critedge:                                        ; preds = %29, %.noexc53
  %39 = phi ptr [ %30, %29 ], [ %.pre, %.noexc53 ]
  %40 = phi i1 [ false, %29 ], [ %38, %.noexc53 ]
  %41 = load i64, ptr %39, align 8
  %42 = and i64 %41, 1152920405095219200
  %.not.i.i = icmp eq i64 %42, 1152920405095219200
  br i1 %.not.i.i, label %.critedge47.thread, label %43, !prof !24

43:                                               ; preds = %.critedge
  %44 = add i64 %41, 1152920405095219200
  %45 = and i64 %44, 1152920405095219200
  %46 = and i64 %41, -1152920405095219201
  %47 = or disjoint i64 %45, %46
  store i64 %47, ptr %39, align 8
  %48 = icmp eq i64 %45, 0
  br i1 %48, label %49, label %.critedge47.thread, !prof !24

49:                                               ; preds = %43
  invoke void @_ZN4cvc58internal4expr9NodeValue15markForDeletionEv(ptr noundef nonnull align 8 dereferenceable(24) %39)
          to label %.critedge47.thread unwind label %50

50:                                               ; preds = %49
  %51 = landingpad { ptr, i32 }
          catch ptr null
  %52 = extractvalue { ptr, i32 } %51, 0
  call void @__clang_call_terminate(ptr %52) #23
  unreachable

.critedge47.thread:                               ; preds = %49, %43, %.critedge
  call void @llvm.lifetime.end.p0(i64 8, ptr nonnull %4) #21
  call void @llvm.lifetime.end.p0(i64 8, ptr nonnull %3) #21
  br label %.critedge49

.critedge47.thread61:                             ; preds = %10, %1
  br label %.critedge49

.critedge47.thread69:                             ; preds = %_ZNK4cvc58internal8TypeNode9isBooleanEv.exit, %11
  br label %.critedge47.thread64

.critedge47.thread64:                             ; preds = %_ZNK4cvc58internal8TypeNode9isBooleanEv.exit, %.critedge47.thread69
  %.ph67 = phi i1 [ false, %.critedge47.thread69 ], [ true, %_ZNK4cvc58internal8TypeNode9isBooleanEv.exit ]
  %53 = load ptr, ptr %2, align 8, !tbaa !207
  %54 = load i64, ptr %53, align 8
  %55 = and i64 %54, 1152920405095219200
  %.not.i.i55 = icmp eq i64 %55, 1152920405095219200
  br i1 %.not.i.i55, label %_ZN4cvc58internal8TypeNodeD2Ev.exit56, label %56, !prof !24

56:                                               ; preds = %.critedge47.thread64
  %57 = add i64 %54, 1152920405095219200
  %58 = and i64 %57, 1152920405095219200
  %59 = and i64 %54, -1152920405095219201
  %60 = or disjoint i64 %58, %59
  store i64 %60, ptr %53, align 8
  %61 = icmp eq i64 %58, 0
  br i1 %61, label %62, label %_ZN4cvc58internal8TypeNodeD2Ev.exit56, !prof !24

62:                                               ; preds = %56
  invoke void @_ZN4cvc58internal4expr9NodeValue15markForDeletionEv(ptr noundef nonnull align 8 dereferenceable(24) %53)
          to label %_ZN4cvc58internal8TypeNodeD2Ev.exit56 unwind label %63

63:                                               ; preds = %62
  %64 = landingpad { ptr, i32 }
          catch ptr null
  %65 = extractvalue { ptr, i32 } %64, 0
  call void @__clang_call_terminate(ptr %65) #23
  unreachable

_ZN4cvc58internal8TypeNodeD2Ev.exit56:            ; preds = %.critedge47.thread64, %56, %62
  call void @llvm.lifetime.end.p0(i64 8, ptr nonnull %2) #21
  br label %.critedge49

.critedge49:                                      ; preds = %10, %.critedge47.thread61, %.critedge47.thread, %_ZN4cvc58internal8TypeNodeD2Ev.exit56
  %66 = phi i1 [ %40, %.critedge47.thread ], [ %.ph67, %_ZN4cvc58internal8TypeNodeD2Ev.exit56 ], [ true, %.critedge47.thread61 ], [ false, %10 ]
  ret i1 %66

67:                                               ; preds = %21
  %68 = landingpad { ptr, i32 }
          cleanup
  br label %73

69:                                               ; preds = %23
  %70 = landingpad { ptr, i32 }
          cleanup
  br label %73

71:                                               ; preds = %35
  %72 = landingpad { ptr, i32 }
          cleanup
  call void @_ZN4cvc58internal8TypeNodeD2Ev(ptr noundef nonnull align 8 dereferenceable(8) %3) #21
  br label %73

73:                                               ; preds = %67, %69, %71
  %.pn.pn = phi { ptr, i32 } [ %68, %67 ], [ %72, %71 ], [ %70, %69 ]
  call void @llvm.lifetime.end.p0(i64 8, ptr nonnull %4) #21
  call void @llvm.lifetime.end.p0(i64 8, ptr nonnull %3) #21
  br label %.critedge51

74:                                               ; preds = %17
  %75 = landingpad { ptr, i32 }
          cleanup
  call void @_ZN4cvc58internal8TypeNodeD2Ev(ptr noundef nonnull align 8 dereferenceable(8) %2) #21
  call void @llvm.lifetime.end.p0(i64 8, ptr nonnull %2) #21
  br label %.critedge51

.critedge51:                                      ; preds = %73, %74
  %.pn.pn.pn72 = phi { ptr, i32 } [ %.pn.pn, %73 ], [ %75, %74 ]
  resume { ptr, i32 } %.pn.pn.pn72
}